; Function Attrs: nofree norecurse nosync nounwind memory(read, inaccessiblemem: none) uwtable
define range(i32 0, -1) i32 @Fra_SmlNodeHash(ptr noundef readonly captures(none) %0, i32 noundef %1) local_unnamed_addr #0 {
  %3 = getelementptr inbounds nuw i8, ptr %0, i64 40
  %4 = load ptr, ptr %3, align 8, !tbaa !3
  %5 = getelementptr inbounds nuw i8, ptr %4, i64 56
  %6 = load ptr, ptr %5, align 8, !tbaa !6
  %7 = getelementptr inbounds nuw i8, ptr %0, i64 36
  %8 = load i32, ptr %7, align 4, !tbaa !22
  %9 = getelementptr inbounds nuw i8, ptr %6, i64 40
  %10 = getelementptr inbounds nuw i8, ptr %6, i64 20
  %11 = load i32, ptr %10, align 4, !tbaa !25
  %12 = mul nsw i32 %11, %8
  %13 = sext i32 %12 to i64
  %14 = getelementptr inbounds i32, ptr %9, i64 %13
  %15 = getelementptr inbounds nuw i8, ptr %6, i64 24
  %16 = load i32, ptr %15, align 8, !tbaa !27
  %17 = icmp slt i32 %16, %11
  br i1 %17, label %.lr.ph.preheader, label %._crit_edge

.lr.ph.preheader:                                 ; preds = %2
  %18 = sext i32 %16 to i64
  %wide.trip.count = sext i32 %11 to i64
  br label %.lr.ph

.lr.ph:                                           ; preds = %.lr.ph.preheader, %.lr.ph
  %indvars.iv = phi i64 [ %18, %.lr.ph.preheader ], [ %indvars.iv.next, %.lr.ph ]
  %.01213 = phi i32 [ 0, %.lr.ph.preheader ], [ %25, %.lr.ph ]
  %19 = getelementptr inbounds i32, ptr %14, i64 %indvars.iv
  %20 = load i32, ptr %19, align 4, !tbaa !28
  %21 = and i64 %indvars.iv, 127
  %22 = getelementptr inbounds nuw [128 x i32], ptr @Fra_SmlNodeHash.s_FPrimes, i64 0, i64 %21
  %23 = load i32, ptr %22, align 4, !tbaa !28
  %24 = mul i32 %23, %20
  %25 = xor i32 %24, %.01213
  %indvars.iv.next = add nsw i64 %indvars.iv, 1
  %exitcond.not = icmp eq i64 %indvars.iv.next, %wide.trip.count
  br i1 %exitcond.not, label %._crit_edge, label %.lr.ph, !llvm.loop !29

._crit_edge:                                      ; preds = %.lr.ph, %2
  %.012.lcssa = phi i32 [ 0, %2 ], [ %25, %.lr.ph ]
  %26 = urem i32 %.012.lcssa, %1
  ret i32 %26
}